target datalayout = "e-m:e-p270:32:32-p271:32:32-p272:64:64-i64:64-i128:128-f80:128-n8:16:32:64-S128"
target triple = "x86_64-pc-linux-gnu"

%struct.varatt_indirect = type { ptr }
%struct.varattrib_1b = type { i8, [0 x i8] }
%struct.varattrib_1b_e = type { i8, i8, [0 x i8] }
%struct.anon = type { i32, [0 x i8] }

; Function Attrs: inlinehint nounwind uwtable
define internal i64 @PointerGetDatum(ptr noundef %0) #4 {
  %2 = alloca ptr, align 8
  store ptr %0, ptr %2, align 8
  %3 = load ptr, ptr %2, align 8
  %4 = ptrtoint ptr %3 to i64
  ret i64 %4
}

; Function Attrs: nounwind uwtable
define dso_local ptr @detoast_external_attr(ptr noundef %0) #0 {
  %2 = alloca ptr, align 8
  %3 = alloca ptr, align 8
  %4 = alloca ptr, align 8
  %5 = alloca %struct.varatt_indirect, align 8
  %6 = alloca ptr, align 8
  %7 = alloca i32, align 4
  %8 = alloca ptr, align 8
  %9 = alloca i64, align 8
  store ptr %0, ptr %3, align 8
  call void @llvm.lifetime.start.p0(i64 8, ptr %4) #7
  %10 = load ptr, ptr %3, align 8
  %11 = getelementptr inbounds nuw %struct.varattrib_1b, ptr %10, i32 0, i32 0
  %12 = load i8, ptr %11, align 1
  %13 = zext i8 %12 to i32
  %14 = icmp eq i32 %13, 1
  br i1 %14, label %15, label %24

15:                                               ; preds = %1
  %16 = load ptr, ptr %3, align 8
  %17 = getelementptr inbounds nuw %struct.varattrib_1b_e, ptr %16, i32 0, i32 1
  %18 = load i8, ptr %17, align 1
  %19 = zext i8 %18 to i32
  %20 = icmp eq i32 %19, 18
  br i1 %20, label %21, label %24

21:                                               ; preds = %15
  %22 = load ptr, ptr %3, align 8
  %23 = call ptr @toast_fetch_datum(ptr noundef %22)
  store ptr %23, ptr %4, align 8
  br label %203

24:                                               ; preds = %15, %1
  %25 = load ptr, ptr %3, align 8
  %26 = getelementptr inbounds nuw %struct.varattrib_1b, ptr %25, i32 0, i32 0
  %27 = load i8, ptr %26, align 1
  %28 = zext i8 %27 to i32
  %29 = icmp eq i32 %28, 1
  br i1 %29, label %30, label %175

30:                                               ; preds = %24
  %31 = load ptr, ptr %3, align 8
  %32 = getelementptr inbounds nuw %struct.varattrib_1b_e, ptr %31, i32 0, i32 1
  %33 = load i8, ptr %32, align 1
  %34 = zext i8 %33 to i32
  %35 = icmp eq i32 %34, 1
  br i1 %35, label %36, label %175

36:                                               ; preds = %30
  call void @llvm.lifetime.start.p0(i64 8, ptr %5) #7
  br label %37

37:                                               ; preds = %36
  call void @llvm.lifetime.start.p0(i64 8, ptr %6) #7
  %38 = load ptr, ptr %3, align 8
  store ptr %38, ptr %6, align 8
  %39 = load ptr, ptr %6, align 8
  %40 = getelementptr inbounds nuw %struct.varattrib_1b_e, ptr %39, i32 0, i32 2
  %41 = getelementptr inbounds [0 x i8], ptr %40, i64 0, i64 0
  call void @llvm.memcpy.p0.p0.i64(ptr align 8 %5, ptr align 1 %41, i64 8, i1 false)
  call void @llvm.lifetime.end.p0(i64 8, ptr %6) #7
  br label %42

42:                                               ; preds = %37
  br label %43

43:                                               ; preds = %42
  %44 = getelementptr inbounds nuw %struct.varatt_indirect, ptr %5, i32 0, i32 0
  %45 = load ptr, ptr %44, align 8
  store ptr %45, ptr %3, align 8
  %46 = load ptr, ptr %3, align 8
  %47 = getelementptr inbounds nuw %struct.varattrib_1b, ptr %46, i32 0, i32 0
  %48 = load i8, ptr %47, align 1
  %49 = zext i8 %48 to i32
  %50 = icmp eq i32 %49, 1
  br i1 %50, label %51, label %54

51:                                               ; preds = %43
  %52 = load ptr, ptr %3, align 8
  %53 = call ptr @detoast_external_attr(ptr noundef %52)
  store ptr %53, ptr %2, align 8
  store i32 1, ptr %7, align 4
  br label %172

54:                                               ; preds = %43
  %55 = load ptr, ptr %3, align 8
  %56 = getelementptr inbounds nuw %struct.varattrib_1b, ptr %55, i32 0, i32 0
  %57 = load i8, ptr %56, align 1
  %58 = zext i8 %57 to i32
  %59 = icmp eq i32 %58, 1
  br i1 %59, label %60, label %87

60:                                               ; preds = %54
  %61 = load ptr, ptr %3, align 8
  %62 = getelementptr inbounds nuw %struct.varattrib_1b_e, ptr %61, i32 0, i32 1
  %63 = load i8, ptr %62, align 1
  %64 = zext i8 %63 to i32
  %65 = icmp eq i32 %64, 1
  br i1 %65, label %66, label %67

66:                                               ; preds = %60
  br label %84

67:                                               ; preds = %60
  %68 = load ptr, ptr %3, align 8
  %69 = getelementptr inbounds nuw %struct.varattrib_1b_e, ptr %68, i32 0, i32 1
  %70 = load i8, ptr %69, align 1
  %71 = zext i8 %70 to i32
  %72 = and i32 %71, -2
  %73 = icmp eq i32 %72, 2
  br i1 %73, label %74, label %75

74:                                               ; preds = %67
  br label %82

75:                                               ; preds = %67
  %76 = load ptr, ptr %3, align 8
  %77 = getelementptr inbounds nuw %struct.varattrib_1b_e, ptr %76, i32 0, i32 1
  %78 = load i8, ptr %77, align 1
  %79 = zext i8 %78 to i32
  %80 = icmp eq i32 %79, 18
  %81 = select i1 %80, i64 16, i64 0
  br label %82

82:                                               ; preds = %75, %74
  %83 = phi i64 [ 8, %74 ], [ %81, %75 ]
  br label %84

84:                                               ; preds = %82, %66
  %85 = phi i64 [ 8, %66 ], [ %83, %82 ]
  %86 = add i64 2, %85
  br label %110

87:                                               ; preds = %54
  %88 = load ptr, ptr %3, align 8
  %89 = getelementptr inbounds nuw %struct.varattrib_1b, ptr %88, i32 0, i32 0
  %90 = load i8, ptr %89, align 1
  %91 = zext i8 %90 to i32
  %92 = and i32 %91, 1
  %93 = icmp eq i32 %92, 1
  br i1 %93, label %94, label %101

94:                                               ; preds = %87
  %95 = load ptr, ptr %3, align 8
  %96 = getelementptr inbounds nuw %struct.varattrib_1b, ptr %95, i32 0, i32 0
  %97 = load i8, ptr %96, align 1
  %98 = zext i8 %97 to i32
  %99 = ashr i32 %98, 1
  %100 = and i32 %99, 127
  br label %107

101:                                              ; preds = %87
  %102 = load ptr, ptr %3, align 8
  %103 = getelementptr inbounds nuw %struct.anon, ptr %102, i32 0, i32 0
  %104 = load i32, ptr %103, align 4
  %105 = lshr i32 %104, 2
  %106 = and i32 %105, 1073741823
  br label %107

107:                                              ; preds = %101, %94
  %108 = phi i32 [ %100, %94 ], [ %106, %101 ]
  %109 = zext i32 %108 to i64
  br label %110

110:                                              ; preds = %107, %84
  %111 = phi i64 [ %86, %84 ], [ %109, %107 ]
  %112 = call ptr @palloc(i64 noundef %111)
  store ptr %112, ptr %4, align 8
  %113 = load ptr, ptr %4, align 8
  %114 = load ptr, ptr %3, align 8
  %115 = load ptr, ptr %3, align 8
  %116 = getelementptr inbounds nuw %struct.varattrib_1b, ptr %115, i32 0, i32 0
  %117 = load i8, ptr %116, align 1
  %118 = zext i8 %117 to i32
  %119 = icmp eq i32 %118, 1
  br i1 %119, label %120, label %147

120:                                              ; preds = %110
  %121 = load ptr, ptr %3, align 8
  %122 = getelementptr inbounds nuw %struct.varattrib_1b_e, ptr %121, i32 0, i32 1
  %123 = load i8, ptr %122, align 1
  %124 = zext i8 %123 to i32
  %125 = icmp eq i32 %124, 1
  br i1 %125, label %126, label %127

126:                                              ; preds = %120
  br label %144

127:                                              ; preds = %120
  %128 = load ptr, ptr %3, align 8
  %129 = getelementptr inbounds nuw %struct.varattrib_1b_e, ptr %128, i32 0, i32 1
  %130 = load i8, ptr %129, align 1
  %131 = zext i8 %130 to i32
  %132 = and i32 %131, -2
  %133 = icmp eq i32 %132, 2
  br i1 %133, label %134, label %135

134:                                              ; preds = %127
  br label %142

135:                                              ; preds = %127
  %136 = load ptr, ptr %3, align 8
  %137 = getelementptr inbounds nuw %struct.varattrib_1b_e, ptr %136, i32 0, i32 1
  %138 = load i8, ptr %137, align 1
  %139 = zext i8 %138 to i32
  %140 = icmp eq i32 %139, 18
  %141 = select i1 %140, i64 16, i64 0
  br label %142

142:                                              ; preds = %135, %134
  %143 = phi i64 [ 8, %134 ], [ %141, %135 ]
  br label %144

144:                                              ; preds = %142, %126
  %145 = phi i64 [ 8, %126 ], [ %143, %142 ]
  %146 = add i64 2, %145
  br label %170

147:                                              ; preds = %110
  %148 = load ptr, ptr %3, align 8
  %149 = getelementptr inbounds nuw %struct.varattrib_1b, ptr %148, i32 0, i32 0
  %150 = load i8, ptr %149, align 1
  %151 = zext i8 %150 to i32
  %152 = and i32 %151, 1
  %153 = icmp eq i32 %152, 1
  br i1 %153, label %154, label %161

154:                                              ; preds = %147
  %155 = load ptr, ptr %3, align 8
  %156 = getelementptr inbounds nuw %struct.varattrib_1b, ptr %155, i32 0, i32 0
  %157 = load i8, ptr %156, align 1
  %158 = zext i8 %157 to i32
  %159 = ashr i32 %158, 1
  %160 = and i32 %159, 127
  br label %167

161:                                              ; preds = %147
  %162 = load ptr, ptr %3, align 8
  %163 = getelementptr inbounds nuw %struct.anon, ptr %162, i32 0, i32 0
  %164 = load i32, ptr %163, align 4
  %165 = lshr i32 %164, 2
  %166 = and i32 %165, 1073741823
  br label %167

167:                                              ; preds = %161, %154
  %168 = phi i32 [ %160, %154 ], [ %166, %161 ]
  %169 = zext i32 %168 to i64
  br label %170

170:                                              ; preds = %167, %144
  %171 = phi i64 [ %146, %144 ], [ %169, %167 ]
  call void @llvm.memcpy.p0.p0.i64(ptr align 1 %113, ptr align 1 %114, i64 %171, i1 false)
  store i32 0, ptr %7, align 4
  br label %172

172:                                              ; preds = %170, %51
  call void @llvm.lifetime.end.p0(i64 8, ptr %5) #7
  %173 = load i32, ptr %7, align 4
  switch i32 %173, label %205 [
    i32 0, label %174
  ]

174:                                              ; preds = %172
  br label %202

175:                                              ; preds = %30, %24
  %176 = load ptr, ptr %3, align 8
  %177 = getelementptr inbounds nuw %struct.varattrib_1b, ptr %176, i32 0, i32 0
  %178 = load i8, ptr %177, align 1
  %179 = zext i8 %178 to i32
  %180 = icmp eq i32 %179, 1
  br i1 %180, label %181, label %199

181:                                              ; preds = %175
  %182 = load ptr, ptr %3, align 8
  %183 = getelementptr inbounds nuw %struct.varattrib_1b_e, ptr %182, i32 0, i32 1
  %184 = load i8, ptr %183, align 1
  %185 = zext i8 %184 to i32
  %186 = and i32 %185, -2
  %187 = icmp eq i32 %186, 2
  br i1 %187, label %188, label %199

188:                                              ; preds = %181
  call void @llvm.lifetime.start.p0(i64 8, ptr %8) #7
  call void @llvm.lifetime.start.p0(i64 8, ptr %9) #7
  %189 = load ptr, ptr %3, align 8
  %190 = call i64 @PointerGetDatum(ptr noundef %189)
  %191 = call ptr @DatumGetEOHP(i64 noundef %190)
  store ptr %191, ptr %8, align 8
  %192 = load ptr, ptr %8, align 8
  %193 = call i64 @EOH_get_flat_size(ptr noundef %192)
  store i64 %193, ptr %9, align 8
  %194 = load i64, ptr %9, align 8
  %195 = call ptr @palloc(i64 noundef %194)
  store ptr %195, ptr %4, align 8
  %196 = load ptr, ptr %8, align 8
  %197 = load ptr, ptr %4, align 8
  %198 = load i64, ptr %9, align 8
  call void @EOH_flatten_into(ptr noundef %196, ptr noundef %197, i64 noundef %198)
  call void @llvm.lifetime.end.p0(i64 8, ptr %9) #7
  call void @llvm.lifetime.end.p0(i64 8, ptr %8) #7
  br label %201

199:                                              ; preds = %181, %175
  %200 = load ptr, ptr %3, align 8
  store ptr %200, ptr %4, align 8
  br label %201

201:                                              ; preds = %199, %188
  br label %202

202:                                              ; preds = %201, %174
  br label %203

203:                                              ; preds = %202, %21
  %204 = load ptr, ptr %4, align 8
  store ptr %204, ptr %2, align 8
  store i32 1, ptr %7, align 4
  br label %205

205:                                              ; preds = %203, %172
  call void @llvm.lifetime.end.p0(i64 8, ptr %4) #7
  %206 = load ptr, ptr %2, align 8
  ret ptr %206
}