; Function Attrs: nounwind uwtable
define dso_local ptr @detoast_external_attr(ptr noundef %0) local_unnamed_addr #0 {
  br label %tailrecurse

tailrecurse:                                      ; preds = %9, %1
  %.tr = phi ptr [ %0, %1 ], [ %.sroa.0.0.copyload, %9 ]
  %2 = load i8, ptr %.tr, align 1
  %3 = icmp eq i8 %2, 1
  br i1 %3, label %4, label %56

4:                                                ; preds = %tailrecurse
  %5 = getelementptr inbounds nuw i8, ptr %.tr, i64 1
  %6 = load i8, ptr %5, align 1
  switch i8 %6, label %48 [
    i8 18, label %7
    i8 1, label %9
  ]

7:                                                ; preds = %4
  %8 = tail call fastcc ptr @toast_fetch_datum(ptr noundef nonnull %.tr)
  br label %56

9:                                                ; preds = %4
  %10 = getelementptr inbounds nuw i8, ptr %.tr, i64 2
  %.sroa.0.0.copyload = load ptr, ptr %10, align 1
  %11 = load i8, ptr %.sroa.0.0.copyload, align 1
  %12 = zext i8 %11 to i32
  %.not44 = icmp eq i8 %11, 1
  br i1 %.not44, label %tailrecurse, label %13

13:                                               ; preds = %9
  %14 = and i32 %12, 1
  %.not = icmp eq i32 %14, 0
  br i1 %.not, label %17, label %15

15:                                               ; preds = %13
  %16 = lshr i32 %12, 1
  br label %20

17:                                               ; preds = %13
  %18 = load i32, ptr %.sroa.0.0.copyload, align 4
  %19 = lshr i32 %18, 2
  br label %20

20:                                               ; preds = %15, %17
  %21 = phi i32 [ %16, %15 ], [ %19, %17 ]
  %22 = zext nneg i32 %21 to i64
  %23 = tail call ptr @palloc(i64 noundef %22) #6
  %24 = load i8, ptr %.sroa.0.0.copyload, align 1
  %25 = zext i8 %24 to i32
  %26 = icmp eq i8 %24, 1
  br i1 %26, label %27, label %36

27:                                               ; preds = %20
  %28 = getelementptr inbounds nuw i8, ptr %.sroa.0.0.copyload, i64 1
  %29 = load i8, ptr %28, align 1
  %30 = icmp eq i8 %29, 1
  %31 = and i8 %29, -2
  %32 = icmp eq i8 %31, 2
  %or.cond = or i1 %30, %32
  %33 = icmp eq i8 %29, 18
  %34 = select i1 %33, i64 18, i64 2
  %35 = select i1 %or.cond, i64 10, i64 %34
  br label %46

36:                                               ; preds = %20
  %37 = and i32 %25, 1
  %.not43 = icmp eq i32 %37, 0
  br i1 %.not43, label %40, label %38

38:                                               ; preds = %36
  %39 = lshr i32 %25, 1
  br label %43

40:                                               ; preds = %36
  %41 = load i32, ptr %.sroa.0.0.copyload, align 4
  %42 = lshr i32 %41, 2
  br label %43

43:                                               ; preds = %40, %38
  %44 = phi i32 [ %39, %38 ], [ %42, %40 ]
  %45 = zext nneg i32 %44 to i64
  br label %46

46:                                               ; preds = %43, %27
  %47 = phi i64 [ %35, %27 ], [ %45, %43 ]
  tail call void @llvm.memcpy.p0.p0.i64(ptr align 1 %23, ptr nonnull align 1 %.sroa.0.0.copyload, i64 %47, i1 false)
  br label %56

48:                                               ; preds = %4
  %49 = and i8 %6, -2
  %50 = icmp eq i8 %49, 2
  br i1 %50, label %51, label %56

51:                                               ; preds = %48
  %52 = ptrtoint ptr %.tr to i64
  %53 = tail call ptr @DatumGetEOHP(i64 noundef %52) #6
  %54 = tail call i64 @EOH_get_flat_size(ptr noundef %53) #6
  %55 = tail call ptr @palloc(i64 noundef %54) #6
  tail call void @EOH_flatten_into(ptr noundef %53, ptr noundef %55, i64 noundef %54) #6
  br label %56

56:                                               ; preds = %46, %tailrecurse, %7, %51, %48
  %.1 = phi ptr [ %8, %7 ], [ %55, %51 ], [ %.tr, %48 ], [ %.tr, %tailrecurse ], [ %23, %46 ]
  ret ptr %.1
}